; Function Attrs: nofree norecurse nosync nounwind null_pointer_is_valid sspstrong memory(readwrite, inaccessiblemem: none) uwtable
define internal fastcc void @LINK_FRAG(ptr noundef captures(none) %0, ptr noundef %1) unnamed_addr #9 {
  %3 = load ptr, ptr %0, align 8
  %4 = icmp eq ptr %3, null
  br i1 %4, label %.loopexit, label %5

5:                                                ; preds = %2
  %6 = getelementptr inbounds nuw i8, ptr %1, i64 12
  %7 = load i32, ptr %6, align 4
  %8 = getelementptr inbounds nuw i8, ptr %3, i64 12
  %9 = load i32, ptr %8, align 4
  %10 = icmp ult i32 %7, %9
  br i1 %10, label %.loopexit, label %11

11:                                               ; preds = %5
  %12 = getelementptr inbounds nuw i8, ptr %0, i64 8
  %13 = load ptr, ptr %12, align 8
  %.not = icmp eq ptr %13, null
  br i1 %.not, label %.preheader, label %14

14:                                               ; preds = %11
  %15 = getelementptr inbounds nuw i8, ptr %13, i64 12
  %16 = load i32, ptr %15, align 4
  %.not26 = icmp ult i32 %7, %16
  %spec.select = select i1 %.not26, ptr %3, ptr %13
  br label %.preheader

.preheader:                                       ; preds = %14, %11
  %.1.ph = phi ptr [ %spec.select, %14 ], [ %3, %11 ]
  br label %17

17:                                               ; preds = %.preheader, %19
  %.1 = phi ptr [ %18, %19 ], [ %.1.ph, %.preheader ]
  %18 = load ptr, ptr %.1, align 8
  %.not27 = icmp eq ptr %18, null
  br i1 %.not27, label %.loopexit, label %19

19:                                               ; preds = %17
  %20 = getelementptr inbounds nuw i8, ptr %18, i64 12
  %21 = load i32, ptr %20, align 4
  %22 = icmp ult i32 %7, %21
  br i1 %22, label %.loopexit, label %17, !llvm.loop !16

.loopexit:                                        ; preds = %17, %19, %2, %5
  %.lcssa33.sink = phi ptr [ %3, %5 ], [ %3, %2 ], [ %18, %19 ], [ %18, %17 ]
  %.1.lcssa.sink = phi ptr [ %0, %5 ], [ %0, %2 ], [ %.1, %19 ], [ %.1, %17 ]
  store ptr %.lcssa33.sink, ptr %1, align 8
  store ptr %1, ptr %.1.lcssa.sink, align 8
  %23 = getelementptr inbounds nuw i8, ptr %1, i64 12
  %24 = load i32, ptr %23, align 4
  %25 = getelementptr inbounds nuw i8, ptr %1, i64 16
  %26 = load i32, ptr %25, align 8
  %27 = add i32 %26, %24
  %28 = getelementptr inbounds nuw i8, ptr %0, i64 20
  %29 = load i32, ptr %28, align 4
  %30 = icmp ugt i32 %24, %29
  br i1 %30, label %update_first_gap.exit, label %31

31:                                               ; preds = %.loopexit
  %32 = getelementptr inbounds nuw i8, ptr %0, i64 8
  %33 = load ptr, ptr %32, align 8
  %34 = icmp eq ptr %33, null
  br i1 %34, label %35, label %36

35:                                               ; preds = %31
  %.not.i = icmp eq i32 %24, 0
  br i1 %.not.i, label %37, label %update_first_gap.exit

36:                                               ; preds = %31
  %..i = tail call i32 @llvm.umax.i32(i32 %29, i32 %27)
  br label %37

37:                                               ; preds = %36, %35
  %.028.i = phi ptr [ %1, %35 ], [ %33, %36 ]
  %.0.i = phi i32 [ %26, %35 ], [ %..i, %36 ]
  %38 = load ptr, ptr %.028.i, align 8
  %.not3637.i = icmp eq ptr %38, null
  br i1 %.not3637.i, label %._crit_edge.i, label %.lr.ph.i.preheader

.lr.ph.i.preheader:                               ; preds = %37
  %39 = getelementptr inbounds nuw i8, ptr %38, i64 12
  %40 = load i32, ptr %39, align 4
  %41 = icmp ugt i32 %40, %.0.i
  br i1 %41, label %._crit_edge.i, label %.lr.ph

.lr.ph.i:                                         ; preds = %.lr.ph
  %42 = getelementptr inbounds nuw i8, ptr %50, i64 12
  %43 = load i32, ptr %42, align 4
  %44 = icmp ugt i32 %43, %.1..i
  br i1 %44, label %._crit_edge.i, label %.lr.ph, !llvm.loop !13

.lr.ph:                                           ; preds = %.lr.ph.i.preheader, %.lr.ph.i
  %45 = phi i32 [ %43, %.lr.ph.i ], [ %40, %.lr.ph.i.preheader ]
  %.139.i28 = phi i32 [ %.1..i, %.lr.ph.i ], [ %.0.i, %.lr.ph.i.preheader ]
  %46 = phi ptr [ %50, %.lr.ph.i ], [ %38, %.lr.ph.i.preheader ]
  %47 = getelementptr inbounds nuw i8, ptr %46, i64 16
  %48 = load i32, ptr %47, align 8
  %49 = add i32 %48, %45
  %.1..i = tail call i32 @llvm.umax.i32(i32 %.139.i28, i32 %49)
  %50 = load ptr, ptr %46, align 8
  %.not36.i = icmp eq ptr %50, null
  br i1 %.not36.i, label %._crit_edge.i, label %.lr.ph.i, !llvm.loop !13

._crit_edge.i:                                    ; preds = %.lr.ph.i, %.lr.ph, %.lr.ph.i.preheader, %37
  %.129.lcssa.i = phi ptr [ %.028.i, %37 ], [ %.028.i, %.lr.ph.i.preheader ], [ %46, %.lr.ph ], [ %46, %.lr.ph.i ]
  %.1.lcssa.i = phi i32 [ %.0.i, %37 ], [ %.0.i, %.lr.ph.i.preheader ], [ %.1..i, %.lr.ph ], [ %.1..i, %.lr.ph.i ]
  store ptr %.129.lcssa.i, ptr %32, align 8
  store i32 %.1.lcssa.i, ptr %28, align 4
  br label %update_first_gap.exit

update_first_gap.exit:                            ; preds = %.loopexit, %35, %._crit_edge.i
  ret void
}